; Function Attrs: mustprogress uwtable
define dso_local void @_ZNK15StatementAssign12OutputSimpleERSo(ptr nocapture noundef nonnull readonly align 8 dereferenceable(136) %0, ptr noundef nonnull align 8 dereferenceable(8) %1) local_unnamed_addr #4 align 2 {
  %3 = getelementptr inbounds i8, ptr %0, i64 32
  %4 = load i32, ptr %3, align 8
  switch i32 %4, label %5 [
    i32 14, label %29
    i32 13, label %29
    i32 12, label %22
    i32 11, label %.sink.split.i10
  ]

5:                                                ; preds = %2
  %6 = getelementptr inbounds i8, ptr %0, i64 40
  %7 = load ptr, ptr %6, align 8
  %8 = load ptr, ptr %7, align 8
  %9 = getelementptr inbounds i8, ptr %8, i64 144
  %10 = load ptr, ptr %9, align 8
  tail call void %10(ptr noundef nonnull align 8 dereferenceable(41) %7, ptr noundef nonnull align 8 dereferenceable(8) %1)
  %11 = tail call noundef nonnull align 8 dereferenceable(8) ptr @_ZStlsISt11char_traitsIcEERSt13basic_ostreamIcT_ES5_PKc(ptr noundef nonnull align 8 dereferenceable(8) %1, ptr noundef nonnull @.str.17)
  %12 = load i32, ptr %3, align 8
  %13 = icmp ult i32 %12, 15
  br i1 %13, label %switch.lookup, label %_ZNK15StatementAssign9output_opERSo.exit

switch.lookup:                                    ; preds = %5
  %14 = zext nneg i32 %12 to i64
  %switch.gep = getelementptr inbounds [15 x ptr], ptr @switch.table._ZNK15StatementAssign12OutputAsExprERSo, i64 0, i64 %14
  %switch.load = load ptr, ptr %switch.gep, align 8
  %15 = tail call noundef nonnull align 8 dereferenceable(8) ptr @_ZStlsISt11char_traitsIcEERSt13basic_ostreamIcT_ES5_PKc(ptr noundef nonnull align 8 dereferenceable(8) %1, ptr noundef nonnull %switch.load)
  br label %_ZNK15StatementAssign9output_opERSo.exit

_ZNK15StatementAssign9output_opERSo.exit:         ; preds = %5, %switch.lookup
  %16 = tail call noundef nonnull align 8 dereferenceable(8) ptr @_ZStlsISt11char_traitsIcEERSt13basic_ostreamIcT_ES5_PKc(ptr noundef nonnull align 8 dereferenceable(8) %1, ptr noundef nonnull @.str.17)
  %17 = getelementptr inbounds i8, ptr %0, i64 48
  %18 = load ptr, ptr %17, align 8
  %19 = load ptr, ptr %18, align 8
  %20 = getelementptr inbounds i8, ptr %19, i64 144
  %21 = load ptr, ptr %20, align 8
  tail call void %21(ptr noundef nonnull align 8 dereferenceable(24) %18, ptr noundef nonnull align 8 dereferenceable(8) %1)
  br label %_ZNK15StatementAssign9output_opERSo.exit15

22:                                               ; preds = %2
  br label %.sink.split.i10

.sink.split.i10:                                  ; preds = %2, %22
  %.str.15.sink.i11 = phi ptr [ @.str.15, %22 ], [ @.str.14, %2 ]
  %23 = tail call noundef nonnull align 8 dereferenceable(8) ptr @_ZStlsISt11char_traitsIcEERSt13basic_ostreamIcT_ES5_PKc(ptr noundef nonnull align 8 dereferenceable(8) %1, ptr noundef nonnull %.str.15.sink.i11)
  %24 = getelementptr inbounds i8, ptr %0, i64 40
  %25 = load ptr, ptr %24, align 8
  %26 = load ptr, ptr %25, align 8
  %27 = getelementptr inbounds i8, ptr %26, i64 144
  %28 = load ptr, ptr %27, align 8
  tail call void %28(ptr noundef nonnull align 8 dereferenceable(41) %25, ptr noundef nonnull align 8 dereferenceable(8) %1)
  br label %_ZNK15StatementAssign9output_opERSo.exit15

29:                                               ; preds = %2, %2
  %30 = getelementptr inbounds i8, ptr %0, i64 40
  %31 = load ptr, ptr %30, align 8
  %32 = load ptr, ptr %31, align 8
  %33 = getelementptr inbounds i8, ptr %32, i64 144
  %34 = load ptr, ptr %33, align 8
  tail call void %34(ptr noundef nonnull align 8 dereferenceable(41) %31, ptr noundef nonnull align 8 dereferenceable(8) %1)
  %35 = load i32, ptr %3, align 8
  %36 = icmp ult i32 %35, 15
  br i1 %36, label %switch.lookup16, label %_ZNK15StatementAssign9output_opERSo.exit15

switch.lookup16:                                  ; preds = %29
  %37 = zext nneg i32 %35 to i64
  %switch.gep17 = getelementptr inbounds [15 x ptr], ptr @switch.table._ZNK15StatementAssign12OutputAsExprERSo, i64 0, i64 %37
  %switch.load18 = load ptr, ptr %switch.gep17, align 8
  %38 = tail call noundef nonnull align 8 dereferenceable(8) ptr @_ZStlsISt11char_traitsIcEERSt13basic_ostreamIcT_ES5_PKc(ptr noundef nonnull align 8 dereferenceable(8) %1, ptr noundef nonnull %switch.load18)
  br label %_ZNK15StatementAssign9output_opERSo.exit15

_ZNK15StatementAssign9output_opERSo.exit15:       ; preds = %29, %switch.lookup16, %.sink.split.i10, %_ZNK15StatementAssign9output_opERSo.exit
  ret void
}